target datalayout = "e-m:e-p270:32:32-p271:32:32-p272:64:64-i64:64-i128:128-f80:128-n8:16:32:64-S128"
target triple = "x86_64-pc-linux-gnu"

%struct.HWContextType = type { i32, ptr, ptr, i64, i64, i64, ptr, ptr, ptr, ptr, ptr, ptr, ptr, ptr, ptr, ptr, ptr, ptr, ptr, ptr, ptr }

@hw_table = internal constant [3 x ptr] [ptr @ff_hwcontext_type_drm, ptr @ff_hwcontext_type_vaapi, ptr null], align 16

; Function Attrs: nounwind uwtable
define i32 @av_hwdevice_iterate_types(i32 noundef %0) #0 {
  %2 = alloca i32, align 4
  %3 = alloca i32, align 4
  %4 = alloca i32, align 4
  %5 = alloca i32, align 4
  store i32 %0, ptr %2, align 4, !tbaa !9
  call void @llvm.lifetime.start.p0(i64 4, ptr %3) #5
  call void @llvm.lifetime.start.p0(i64 4, ptr %4) #5
  call void @llvm.lifetime.start.p0(i64 4, ptr %5) #5
  store i32 0, ptr %5, align 4, !tbaa !9
  store i32 0, ptr %4, align 4, !tbaa !9
  br label %6

6:                                                ; preds = %45, %1
  %7 = load i32, ptr %4, align 4, !tbaa !9
  %8 = sext i32 %7 to i64
  %9 = getelementptr inbounds [3 x ptr], ptr @hw_table, i64 0, i64 %8
  %10 = load ptr, ptr %9, align 8, !tbaa !13
  %11 = icmp ne ptr %10, null
  br i1 %11, label %12, label %48

12:                                               ; preds = %6
  %13 = load i32, ptr %2, align 4, !tbaa !9
  %14 = icmp ne i32 %13, 0
  br i1 %14, label %15, label %25

15:                                               ; preds = %12
  %16 = load i32, ptr %4, align 4, !tbaa !9
  %17 = sext i32 %16 to i64
  %18 = getelementptr inbounds [3 x ptr], ptr @hw_table, i64 0, i64 %17
  %19 = load ptr, ptr %18, align 8, !tbaa !13
  %20 = getelementptr inbounds nuw %struct.HWContextType, ptr %19, i32 0, i32 0
  %21 = load i32, ptr %20, align 8, !tbaa !15
  %22 = load i32, ptr %2, align 4, !tbaa !9
  %23 = icmp ule i32 %21, %22
  br i1 %23, label %24, label %25

24:                                               ; preds = %15
  br label %45

25:                                               ; preds = %15, %12
  %26 = load i32, ptr %5, align 4, !tbaa !9
  %27 = icmp ne i32 %26, 0
  br i1 %27, label %28, label %37

28:                                               ; preds = %25
  %29 = load i32, ptr %4, align 4, !tbaa !9
  %30 = sext i32 %29 to i64
  %31 = getelementptr inbounds [3 x ptr], ptr @hw_table, i64 0, i64 %30
  %32 = load ptr, ptr %31, align 8, !tbaa !13
  %33 = getelementptr inbounds nuw %struct.HWContextType, ptr %32, i32 0, i32 0
  %34 = load i32, ptr %33, align 8, !tbaa !15
  %35 = load i32, ptr %3, align 4, !tbaa !9
  %36 = icmp ult i32 %34, %35
  br i1 %36, label %37, label %44

37:                                               ; preds = %28, %25
  %38 = load i32, ptr %4, align 4, !tbaa !9
  %39 = sext i32 %38 to i64
  %40 = getelementptr inbounds [3 x ptr], ptr @hw_table, i64 0, i64 %39
  %41 = load ptr, ptr %40, align 8, !tbaa !13
  %42 = getelementptr inbounds nuw %struct.HWContextType, ptr %41, i32 0, i32 0
  %43 = load i32, ptr %42, align 8, !tbaa !15
  store i32 %43, ptr %3, align 4, !tbaa !9
  store i32 1, ptr %5, align 4, !tbaa !9
  br label %44

44:                                               ; preds = %37, %28
  br label %45

45:                                               ; preds = %44, %24
  %46 = load i32, ptr %4, align 4, !tbaa !9
  %47 = add nsw i32 %46, 1
  store i32 %47, ptr %4, align 4, !tbaa !9
  br label %6, !llvm.loop !18

48:                                               ; preds = %6
  %49 = load i32, ptr %5, align 4, !tbaa !9
  %50 = icmp ne i32 %49, 0
  br i1 %50, label %51, label %53

51:                                               ; preds = %48
  %52 = load i32, ptr %3, align 4, !tbaa !9
  br label %54

53:                                               ; preds = %48
  br label %54

54:                                               ; preds = %53, %51
  %55 = phi i32 [ %52, %51 ], [ 0, %53 ]
  call void @llvm.lifetime.end.p0(i64 4, ptr %5) #5
  call void @llvm.lifetime.end.p0(i64 4, ptr %4) #5
  call void @llvm.lifetime.end.p0(i64 4, ptr %3) #5
  ret i32 %55
}