; Function Attrs: nofree norecurse nosync nounwind memory(read, inaccessiblemem: none) uwtable
define i32 @av_hwdevice_iterate_types(i32 noundef %0) local_unnamed_addr #4 {
  %.not17 = icmp eq i32 %0, 0
  br i1 %.not17, label %.split.us, label %.split

.split.us:                                        ; preds = %1, %.split.us
  %indvars.iv28 = phi i64 [ %indvars.iv.next29, %.split.us ], [ 0, %1 ]
  %2 = phi ptr [ %5, %.split.us ], [ @ff_hwcontext_type_drm, %1 ]
  %.not19.us = phi i1 [ false, %.split.us ], [ true, %1 ]
  %.01220.us = phi i32 [ %.113.us, %.split.us ], [ undef, %1 ]
  %.pre = load i32, ptr %2, align 8, !tbaa !11
  %3 = tail call i32 @llvm.umin.i32(i32 %.pre, i32 %.01220.us)
  %.113.us = select i1 %.not19.us, i32 %.pre, i32 %3
  %indvars.iv.next29 = add nuw nsw i64 %indvars.iv28, 1
  %4 = getelementptr inbounds nuw [3 x ptr], ptr @hw_table, i64 0, i64 %indvars.iv.next29
  %5 = load ptr, ptr %4, align 8, !tbaa !15
  %.not.us = icmp eq i64 %indvars.iv.next29, 2
  br i1 %.not.us, label %.split24.us, label %.split.us, !llvm.loop !17

.split:                                           ; preds = %1, %.split
  %indvars.iv = phi i64 [ %indvars.iv.next, %.split ], [ 0, %1 ]
  %6 = phi ptr [ %10, %.split ], [ @ff_hwcontext_type_drm, %1 ]
  %.022 = phi i32 [ %.1, %.split ], [ 0, %1 ]
  %.01220 = phi i32 [ %.113, %.split ], [ undef, %1 ]
  %7 = load i32, ptr %6, align 8, !tbaa !11
  %.not18 = icmp ugt i32 %7, %0
  %.not19 = icmp eq i32 %.022, 0
  %8 = tail call i32 @llvm.umin.i32(i32 %7, i32 %.01220)
  %spec.select = select i1 %.not19, i32 %7, i32 %8
  %.113 = select i1 %.not18, i32 %spec.select, i32 %.01220
  %.1 = select i1 %.not18, i32 1, i32 %.022
  %indvars.iv.next = add nuw nsw i64 %indvars.iv, 1
  %9 = getelementptr inbounds nuw [3 x ptr], ptr @hw_table, i64 0, i64 %indvars.iv.next
  %10 = load ptr, ptr %9, align 8, !tbaa !15
  %.not = icmp eq i64 %indvars.iv.next, 2
  br i1 %.not, label %.split24.us.loopexit26, label %.split, !llvm.loop !17

.split24.us.loopexit26:                           ; preds = %.split
  %11 = icmp eq i32 %.1, 0
  %12 = select i1 %11, i32 0, i32 %.113
  br label %.split24.us

.split24.us:                                      ; preds = %.split.us, %.split24.us.loopexit26
  %.us-phi25 = phi i32 [ %12, %.split24.us.loopexit26 ], [ %.113.us, %.split.us ]
  ret i32 %.us-phi25
}